; Function Attrs: mustprogress uwtable
define noundef i32 @_ZNK18OpenImageIO_v2_6_014ParamValueList7get_intENS_17basic_string_viewIcSt11char_traitsIcEEEibb(ptr nocapture noundef nonnull readonly align 8 dereferenceable(24) %this, ptr nocapture noundef readonly %name, i32 noundef %defaultval, i1 noundef zeroext %casesensitive, i1 noundef zeroext %convert) local_unnamed_addr #10 align 2 {
entry:
  %val.i.i = alloca i32, align 4
  %agg.tmp.i.i = alloca %"struct.OpenImageIO_v2_6_0::TypeDesc", align 4
  %ref.tmp2.i.i = alloca %"struct.OpenImageIO_v2_6_0::TypeDesc", align 4
  %agg.tmp4.i.i = alloca %"struct.OpenImageIO_v2_6_0::TypeDesc", align 4
  %agg.tmp = alloca %"class.OpenImageIO_v2_6_0::basic_string_view", align 8
  %agg.tmp3 = alloca %"struct.OpenImageIO_v2_6_0::TypeDesc", align 4
  %0 = load ptr, ptr %name, align 8
  store ptr %0, ptr %agg.tmp, align 8
  %m_len.i = getelementptr inbounds i8, ptr %agg.tmp, i64 8
  %m_len.i.i = getelementptr inbounds i8, ptr %name, i64 8
  %1 = load i64, ptr %m_len.i.i, align 8
  store i64 %1, ptr %m_len.i, align 8
  %conv.i = select i1 %convert, i8 0, i8 7
  store i8 %conv.i, ptr %agg.tmp3, align 4
  %aggregate.i = getelementptr inbounds i8, ptr %agg.tmp3, i64 1
  store i8 1, ptr %aggregate.i, align 1
  %vecsemantics.i = getelementptr inbounds i8, ptr %agg.tmp3, i64 2
  store i8 0, ptr %vecsemantics.i, align 2
  %reserved.i = getelementptr inbounds i8, ptr %agg.tmp3, i64 3
  store i8 0, ptr %reserved.i, align 1
  %arraylen4.i = getelementptr inbounds i8, ptr %agg.tmp3, i64 4
  store i32 0, ptr %arraylen4.i, align 4
  %call = call ptr @_ZNK18OpenImageIO_v2_6_014ParamValueList4findENS_17basic_string_viewIcSt11char_traitsIcEEENS_8TypeDescEb(ptr noundef nonnull align 8 dereferenceable(24) %this, ptr noundef nonnull %agg.tmp, ptr noundef nonnull %agg.tmp3, i1 noundef zeroext %casesensitive)
  %_M_finish.i = getelementptr inbounds i8, ptr %this, i64 8
  %2 = load ptr, ptr %_M_finish.i, align 8
  %cmp.i = icmp eq ptr %call, %2
  br i1 %cmp.i, label %cond.end, label %cond.false

cond.false:                                       ; preds = %entry
  call void @llvm.lifetime.start.p0(i64 4, ptr nonnull %val.i.i)
  call void @llvm.lifetime.start.p0(i64 8, ptr nonnull %agg.tmp.i.i)
  call void @llvm.lifetime.start.p0(i64 8, ptr nonnull %ref.tmp2.i.i)
  call void @llvm.lifetime.start.p0(i64 8, ptr nonnull %agg.tmp4.i.i)
  store i32 %defaultval, ptr %val.i.i, align 4
  %m_type.i.i.i = getelementptr inbounds i8, ptr %call, i64 8
  %3 = load i8, ptr %m_type.i.i.i, align 4, !noalias !71
  %aggregate3.i.i.i.i = getelementptr inbounds i8, ptr %call, i64 9
  %4 = load i8, ptr %aggregate3.i.i.i.i, align 1, !noalias !71
  %vecsemantics4.i.i.i.i = getelementptr inbounds i8, ptr %call, i64 10
  %5 = load i8, ptr %vecsemantics4.i.i.i.i, align 2, !noalias !71
  %arraylen5.i.i.i.i = getelementptr inbounds i8, ptr %call, i64 12
  store i8 %3, ptr %agg.tmp.i.i, align 4, !alias.scope !231
  %aggregate.i.i1.i.i = getelementptr inbounds i8, ptr %agg.tmp.i.i, i64 1
  store i8 %4, ptr %aggregate.i.i1.i.i, align 1, !alias.scope !231
  %vecsemantics.i.i3.i.i = getelementptr inbounds i8, ptr %agg.tmp.i.i, i64 2
  store i8 %5, ptr %vecsemantics.i.i3.i.i, align 2, !alias.scope !231
  %reserved.i.i5.i.i = getelementptr inbounds i8, ptr %agg.tmp.i.i, i64 3
  store i8 0, ptr %reserved.i.i5.i.i, align 1, !alias.scope !231
  %arraylen.i.i6.i.i = getelementptr inbounds i8, ptr %agg.tmp.i.i, i64 4
  store i32 0, ptr %arraylen.i.i6.i.i, align 4, !alias.scope !231
  %m_nonlocal.i.i.i = getelementptr inbounds i8, ptr %call, i64 38
  %6 = load i8, ptr %m_nonlocal.i.i.i, align 2
  %7 = and i8 %6, 1
  %tobool.not.i.i.i = icmp eq i8 %7, 0
  %m_data.i.i.i = getelementptr inbounds i8, ptr %call, i64 16
  %8 = load ptr, ptr %m_data.i.i.i, align 8
  %cond.i.i.i = select i1 %tobool.not.i.i.i, ptr %m_data.i.i.i, ptr %8
  tail call void @llvm.experimental.noalias.scope.decl(metadata !234)
  store i8 %3, ptr %ref.tmp2.i.i, align 4, !alias.scope !234
  %aggregate.i.i8.i.i = getelementptr inbounds i8, ptr %ref.tmp2.i.i, i64 1
  store i8 %4, ptr %aggregate.i.i8.i.i, align 1, !alias.scope !234
  %vecsemantics.i.i10.i.i = getelementptr inbounds i8, ptr %ref.tmp2.i.i, i64 2
  store i8 %5, ptr %vecsemantics.i.i10.i.i, align 2, !alias.scope !234
  %reserved.i.i12.i.i = getelementptr inbounds i8, ptr %ref.tmp2.i.i, i64 3
  store i8 0, ptr %reserved.i.i12.i.i, align 1, !alias.scope !234
  %arraylen.i.i13.i.i = getelementptr inbounds i8, ptr %ref.tmp2.i.i, i64 4
  %9 = load i32, ptr %arraylen5.i.i.i.i, align 4, !noalias !234
  store i32 %9, ptr %arraylen.i.i13.i.i, align 4, !alias.scope !234
  %call3.i.i = call noundef i64 @_ZNK18OpenImageIO_v2_6_08TypeDesc8basesizeEv(ptr noundef nonnull align 4 dereferenceable(8) %ref.tmp2.i.i) #24
  store <4 x i8> <i8 7, i8 1, i8 0, i8 0>, ptr %agg.tmp4.i.i, align 4
  %arraylen.i.i.i = getelementptr inbounds i8, ptr %agg.tmp4.i.i, i64 4
  store i32 0, ptr %arraylen.i.i.i, align 4
  %call5.i.i = call noundef zeroext i1 @_ZN18OpenImageIO_v2_6_012convert_typeENS_8TypeDescEPKvS0_Pvi(ptr noundef nonnull %agg.tmp.i.i, ptr noundef %cond.i.i.i, ptr noundef nonnull %agg.tmp4.i.i, ptr noundef nonnull %val.i.i, i32 noundef 1)
  %10 = load i32, ptr %val.i.i, align 4
  call void @llvm.lifetime.end.p0(i64 4, ptr nonnull %val.i.i)
  call void @llvm.lifetime.end.p0(i64 8, ptr nonnull %agg.tmp.i.i)
  call void @llvm.lifetime.end.p0(i64 8, ptr nonnull %ref.tmp2.i.i)
  call void @llvm.lifetime.end.p0(i64 8, ptr nonnull %agg.tmp4.i.i)
  br label %cond.end

cond.end:                                         ; preds = %entry, %cond.false
  %cond10 = phi i32 [ %10, %cond.false ], [ %defaultval, %entry ]
  ret i32 %cond10
}